target datalayout = "e-m:e-p270:32:32-p271:32:32-p272:64:64-i64:64-i128:128-f80:128-n8:16:32:64-S128"
target triple = "x86_64-pc-linux-gnu"

%struct._value_string_ext = type { ptr, i32, i32, ptr, ptr }
%struct.expert_field = type { i32, i32 }

@hf_r3_eventlog_recordnumber = internal global i32 0, align 4
@hf_r3_eventlog_year = internal global i32 0, align 4
@hf_r3_eventlog_month = internal global i32 0, align 4
@hf_r3_eventlog_day = internal global i32 0, align 4
@hf_r3_eventlog_hour = internal global i32 0, align 4
@hf_r3_eventlog_minute = internal global i32 0, align 4
@hf_r3_eventlog_second = internal global i32 0, align 4
@hf_r3_eventlog_usernumber = internal global i32 0, align 4
@hf_r3_eventlog_event = internal global i32 0, align 4
@r3_eventnames_ext = internal global %struct._value_string_ext { ptr @_try_val_to_str_ext_init, i32 0, i32 77, ptr @r3_eventnames, ptr @.str.1569 }, align 8
@ett_r3eventlogrecord = internal global i32 0, align 4
@ei_r3_malformed_length = internal global %struct.expert_field zeroinitializer, align 4
@.str.1860 = private unnamed_addr constant [29 x i8] c"%s:%u: failed assertion \22%s\22\00", align 1
@.str.1861 = private unnamed_addr constant [33 x i8] c"epan/dissectors/packet-assa_r3.c\00", align 1
@.str.1862 = private unnamed_addr constant [18 x i8] c"start_offset == 0\00", align 1
@.str.2021 = private unnamed_addr constant [49 x i8] c"Malformed event log record -- expected 10 octets\00", align 1
@.str.2022 = private unnamed_addr constant [16 x i8] c"[Unknown Event]\00", align 1
@.str.2023 = private unnamed_addr constant [25 x i8] c"Event Log Record %u (%s)\00", align 1

; Function Attrs: null_pointer_is_valid sspstrong uwtable
define internal void @dissect_r3_upstreamcommand_dumpeventlog(ptr noundef %0, i32 noundef %1, i32 noundef %2, ptr noundef %3, ptr noundef %4) #0 {
  %6 = alloca ptr, align 8
  %7 = alloca i32, align 4
  %8 = alloca i32, align 4
  %9 = alloca ptr, align 8
  %10 = alloca ptr, align 8
  %11 = alloca ptr, align 8
  %12 = alloca ptr, align 8
  %13 = alloca i32, align 4
  store ptr %0, ptr %6, align 8
  store i32 %1, ptr %7, align 4
  store i32 %2, ptr %8, align 4
  store ptr %3, ptr %9, align 8
  store ptr %4, ptr %10, align 8
  %14 = load i32, ptr %7, align 4
  %15 = icmp eq i32 %14, 0
  br i1 %15, label %16, label %17

16:                                               ; preds = %5
  br label %19

17:                                               ; preds = %5
  call void (ptr, ...) @proto_report_dissector_bug(ptr noundef @.str.1860, ptr noundef @.str.1861, i32 noundef 3882, ptr noundef @.str.1862) #6
  unreachable

18:                                               ; No predecessors!
  br label %19

19:                                               ; preds = %18, %16
  %20 = load ptr, ptr %6, align 8
  call void @tvb_ensure_bytes_exist(ptr noundef %20, i32 noundef 0, i32 noundef 11)
  %21 = load i32, ptr %8, align 4
  %22 = icmp ne i32 %21, 11
  br i1 %22, label %23, label %28

23:                                               ; preds = %19
  %24 = load ptr, ptr %9, align 8
  %25 = load ptr, ptr %10, align 8
  %26 = call ptr @proto_tree_get_parent(ptr noundef %25)
  %27 = call ptr (ptr, ptr, ptr, ptr, ...) @expert_add_info_format(ptr noundef %24, ptr noundef %26, ptr noundef @ei_r3_malformed_length, ptr noundef @.str.2021)
  br label %85

28:                                               ; preds = %19
  call void @llvm.lifetime.start.p0(i64 8, ptr %11) #5
  call void @llvm.lifetime.start.p0(i64 8, ptr %12) #5
  %29 = load ptr, ptr %10, align 8
  %30 = icmp ne ptr %29, null
  br i1 %30, label %32, label %31

31:                                               ; preds = %28
  store i32 1, ptr %13, align 4
  br label %82

32:                                               ; preds = %28
  %33 = load ptr, ptr %6, align 8
  %34 = call zeroext i8 @tvb_get_uint8(ptr noundef %33, i32 noundef 10)
  %35 = zext i8 %34 to i32
  %36 = call ptr @val_to_str_ext_const(i32 noundef %35, ptr noundef @r3_eventnames_ext, ptr noundef @.str.2022)
  store ptr %36, ptr %12, align 8
  %37 = load ptr, ptr %10, align 8
  %38 = load ptr, ptr %6, align 8
  %39 = load i32, ptr %7, align 4
  %40 = load i32, ptr @ett_r3eventlogrecord, align 4
  %41 = load ptr, ptr %6, align 8
  %42 = call zeroext i16 @tvb_get_letohs(ptr noundef %41, i32 noundef 0)
  %43 = zext i16 %42 to i32
  %44 = load ptr, ptr %12, align 8
  %45 = call ptr (ptr, ptr, i32, i32, i32, ptr, ptr, ...) @proto_tree_add_subtree_format(ptr noundef %37, ptr noundef %38, i32 noundef %39, i32 noundef 10, i32 noundef %40, ptr noundef null, ptr noundef @.str.2023, i32 noundef %43, ptr noundef %44)
  store ptr %45, ptr %11, align 8
  %46 = load ptr, ptr %11, align 8
  %47 = load i32, ptr @hf_r3_eventlog_recordnumber, align 4
  %48 = load ptr, ptr %6, align 8
  %49 = call ptr @proto_tree_add_item(ptr noundef %46, i32 noundef %47, ptr noundef %48, i32 noundef 0, i32 noundef 2, i32 noundef -2147483648)
  %50 = load ptr, ptr %11, align 8
  %51 = load i32, ptr @hf_r3_eventlog_year, align 4
  %52 = load ptr, ptr %6, align 8
  %53 = call ptr @proto_tree_add_item(ptr noundef %50, i32 noundef %51, ptr noundef %52, i32 noundef 2, i32 noundef 1, i32 noundef -2147483648)
  %54 = load ptr, ptr %11, align 8
  %55 = load i32, ptr @hf_r3_eventlog_month, align 4
  %56 = load ptr, ptr %6, align 8
  %57 = call ptr @proto_tree_add_item(ptr noundef %54, i32 noundef %55, ptr noundef %56, i32 noundef 3, i32 noundef 1, i32 noundef -2147483648)
  %58 = load ptr, ptr %11, align 8
  %59 = load i32, ptr @hf_r3_eventlog_day, align 4
  %60 = load ptr, ptr %6, align 8
  %61 = call ptr @proto_tree_add_item(ptr noundef %58, i32 noundef %59, ptr noundef %60, i32 noundef 4, i32 noundef 1, i32 noundef -2147483648)
  %62 = load ptr, ptr %11, align 8
  %63 = load i32, ptr @hf_r3_eventlog_hour, align 4
  %64 = load ptr, ptr %6, align 8
  %65 = call ptr @proto_tree_add_item(ptr noundef %62, i32 noundef %63, ptr noundef %64, i32 noundef 5, i32 noundef 1, i32 noundef -2147483648)
  %66 = load ptr, ptr %11, align 8
  %67 = load i32, ptr @hf_r3_eventlog_minute, align 4
  %68 = load ptr, ptr %6, align 8
  %69 = call ptr @proto_tree_add_item(ptr noundef %66, i32 noundef %67, ptr noundef %68, i32 noundef 6, i32 noundef 1, i32 noundef -2147483648)
  %70 = load ptr, ptr %11, align 8
  %71 = load i32, ptr @hf_r3_eventlog_second, align 4
  %72 = load ptr, ptr %6, align 8
  %73 = call ptr @proto_tree_add_item(ptr noundef %70, i32 noundef %71, ptr noundef %72, i32 noundef 7, i32 noundef 1, i32 noundef -2147483648)
  %74 = load ptr, ptr %11, align 8
  %75 = load i32, ptr @hf_r3_eventlog_usernumber, align 4
  %76 = load ptr, ptr %6, align 8
  %77 = call ptr @proto_tree_add_item(ptr noundef %74, i32 noundef %75, ptr noundef %76, i32 noundef 8, i32 noundef 2, i32 noundef -2147483648)
  %78 = load ptr, ptr %11, align 8
  %79 = load i32, ptr @hf_r3_eventlog_event, align 4
  %80 = load ptr, ptr %6, align 8
  %81 = call ptr @proto_tree_add_item(ptr noundef %78, i32 noundef %79, ptr noundef %80, i32 noundef 10, i32 noundef 1, i32 noundef -2147483648)
  store i32 0, ptr %13, align 4
  br label %82

82:                                               ; preds = %32, %31
  call void @llvm.lifetime.end.p0(i64 8, ptr %12) #5
  call void @llvm.lifetime.end.p0(i64 8, ptr %11) #5
  %83 = load i32, ptr %13, align 4
  switch i32 %83, label %86 [
    i32 0, label %84
    i32 1, label %85
  ]

84:                                               ; preds = %82
  br label %85

85:                                               ; preds = %82, %84, %23
  ret void

86:                                               ; preds = %82
  unreachable
}