; Function Attrs: null_pointer_is_valid sspstrong uwtable
define internal void @dissect_r3_upstreamcommand_dumpeventlog(ptr noundef %0, i32 noundef %1, i32 noundef %2, ptr noundef %3, ptr noundef %4) #0 {
  %6 = icmp eq i32 %1, 0
  br i1 %6, label %8, label %7

7:                                                ; preds = %5
  tail call void (ptr, ...) @proto_report_dissector_bug(ptr noundef nonnull @.str.1860, ptr noundef nonnull @.str.1861, i32 noundef 3882, ptr noundef nonnull @.str.1862) #6
  unreachable

8:                                                ; preds = %5
  tail call void @tvb_ensure_bytes_exist(ptr noundef %0, i32 noundef 0, i32 noundef 11)
  %.not = icmp eq i32 %2, 11
  br i1 %.not, label %12, label %9

9:                                                ; preds = %8
  %10 = tail call ptr @proto_tree_get_parent(ptr noundef %4)
  %11 = tail call ptr (ptr, ptr, ptr, ptr, ...) @expert_add_info_format(ptr noundef %3, ptr noundef %10, ptr noundef nonnull @ei_r3_malformed_length, ptr noundef nonnull @.str.2021)
  br label %39

12:                                               ; preds = %8
  %.not30 = icmp eq ptr %4, null
  br i1 %.not30, label %39, label %13

13:                                               ; preds = %12
  %14 = tail call zeroext i8 @tvb_get_uint8(ptr noundef %0, i32 noundef 10)
  %15 = zext i8 %14 to i32
  %16 = tail call ptr @val_to_str_ext_const(i32 noundef %15, ptr noundef nonnull @r3_eventnames_ext, ptr noundef nonnull @.str.2022)
  %17 = load i32, ptr @ett_r3eventlogrecord, align 4
  %18 = tail call zeroext i16 @tvb_get_letohs(ptr noundef %0, i32 noundef 0)
  %19 = zext i16 %18 to i32
  %20 = tail call ptr (ptr, ptr, i32, i32, i32, ptr, ptr, ...) @proto_tree_add_subtree_format(ptr noundef nonnull %4, ptr noundef %0, i32 noundef 0, i32 noundef 10, i32 noundef %17, ptr noundef null, ptr noundef nonnull @.str.2023, i32 noundef %19, ptr noundef %16)
  %21 = load i32, ptr @hf_r3_eventlog_recordnumber, align 4
  %22 = tail call ptr @proto_tree_add_item(ptr noundef %20, i32 noundef %21, ptr noundef %0, i32 noundef 0, i32 noundef 2, i32 noundef -2147483648)
  %23 = load i32, ptr @hf_r3_eventlog_year, align 4
  %24 = tail call ptr @proto_tree_add_item(ptr noundef %20, i32 noundef %23, ptr noundef %0, i32 noundef 2, i32 noundef 1, i32 noundef -2147483648)
  %25 = load i32, ptr @hf_r3_eventlog_month, align 4
  %26 = tail call ptr @proto_tree_add_item(ptr noundef %20, i32 noundef %25, ptr noundef %0, i32 noundef 3, i32 noundef 1, i32 noundef -2147483648)
  %27 = load i32, ptr @hf_r3_eventlog_day, align 4
  %28 = tail call ptr @proto_tree_add_item(ptr noundef %20, i32 noundef %27, ptr noundef %0, i32 noundef 4, i32 noundef 1, i32 noundef -2147483648)
  %29 = load i32, ptr @hf_r3_eventlog_hour, align 4
  %30 = tail call ptr @proto_tree_add_item(ptr noundef %20, i32 noundef %29, ptr noundef %0, i32 noundef 5, i32 noundef 1, i32 noundef -2147483648)
  %31 = load i32, ptr @hf_r3_eventlog_minute, align 4
  %32 = tail call ptr @proto_tree_add_item(ptr noundef %20, i32 noundef %31, ptr noundef %0, i32 noundef 6, i32 noundef 1, i32 noundef -2147483648)
  %33 = load i32, ptr @hf_r3_eventlog_second, align 4
  %34 = tail call ptr @proto_tree_add_item(ptr noundef %20, i32 noundef %33, ptr noundef %0, i32 noundef 7, i32 noundef 1, i32 noundef -2147483648)
  %35 = load i32, ptr @hf_r3_eventlog_usernumber, align 4
  %36 = tail call ptr @proto_tree_add_item(ptr noundef %20, i32 noundef %35, ptr noundef %0, i32 noundef 8, i32 noundef 2, i32 noundef -2147483648)
  %37 = load i32, ptr @hf_r3_eventlog_event, align 4
  %38 = tail call ptr @proto_tree_add_item(ptr noundef %20, i32 noundef %37, ptr noundef %0, i32 noundef 10, i32 noundef 1, i32 noundef -2147483648)
  br label %39

39:                                               ; preds = %13, %12, %9
  ret void
}